; Function Attrs: mustprogress nounwind uwtable
define dso_local noundef zeroext i1 @_ZN5clang6interp15ByteCodeEmitter16emitAllocNSint16ENS0_8PrimTypeEPKNS_4ExprEbRKNS0_10SourceInfoE(ptr noundef nonnull align 8 dereferenceable(488) %0, i32 noundef %1, ptr noundef %2, i1 noundef zeroext %3, ptr noundef nonnull align 8 dereferenceable(8) %4) local_unnamed_addr #0 align 2 {
  %6 = alloca i32, align 4
  %7 = alloca ptr, align 8
  %8 = alloca i8, align 1
  store i32 %1, ptr %6, align 4
  store ptr %2, ptr %7, align 8
  %9 = zext i1 %3 to i8
  store i8 %9, ptr %8, align 1
  %10 = call noundef zeroext i1 @_ZN5clang6interp15ByteCodeEmitter6emitOpIJNS0_8PrimTypeEPKNS_4ExprEbEEEbNS0_6OpcodeEDpRKT_RKNS0_10SourceInfoE(ptr noundef nonnull align 8 dereferenceable(488) %0, i32 noundef 36, ptr noundef nonnull align 4 dereferenceable(4) %6, ptr noundef nonnull align 8 dereferenceable(8) %7, ptr noundef nonnull align 1 dereferenceable(1) %8, ptr noundef nonnull align 8 dereferenceable(8) %4)
  ret i1 %10
}